; Function Attrs: nounwind uwtable
define internal fastcc void @psset_alloc_container_remove(ptr noundef %0, ptr noundef initializes((18, 19)) %1) unnamed_addr #0 {
  %3 = getelementptr inbounds nuw i8, ptr %1, i64 18
  store i8 0, ptr %3, align 2, !tbaa !21
  %4 = getelementptr i8, ptr %1, i64 104
  %.val = load i64, ptr %4, align 8, !tbaa !24
  switch i64 %.val, label %34 [
    i64 0, label %5
    i64 512, label %hpdata_empty_list_remove.exit
  ]

5:                                                ; preds = %2
  %6 = getelementptr inbounds nuw i8, ptr %0, i64 4224
  %7 = load ptr, ptr %6, align 8, !tbaa !36
  %8 = icmp eq ptr %7, %1
  br i1 %8, label %9, label %12

9:                                                ; preds = %5
  %10 = getelementptr inbounds nuw i8, ptr %7, i64 40
  %11 = load ptr, ptr %10, align 8, !tbaa !37
  store ptr %11, ptr %6, align 8, !tbaa !36
  br label %12

12:                                               ; preds = %9, %5
  %13 = phi ptr [ %11, %9 ], [ %7, %5 ]
  %.not.i = icmp eq ptr %13, %1
  br i1 %.not.i, label %33, label %14

14:                                               ; preds = %12
  %15 = getelementptr inbounds nuw i8, ptr %1, i64 40
  %16 = load ptr, ptr %15, align 8, !tbaa !37
  %17 = getelementptr inbounds nuw i8, ptr %16, i64 48
  %18 = load ptr, ptr %17, align 8, !tbaa !37
  %19 = getelementptr inbounds nuw i8, ptr %1, i64 48
  %20 = load ptr, ptr %19, align 8, !tbaa !37
  %21 = getelementptr inbounds nuw i8, ptr %20, i64 40
  store ptr %18, ptr %21, align 8, !tbaa !37
  %22 = load ptr, ptr %19, align 8, !tbaa !37
  %23 = load ptr, ptr %15, align 8, !tbaa !37
  %24 = getelementptr inbounds nuw i8, ptr %23, i64 48
  store ptr %22, ptr %24, align 8, !tbaa !37
  %25 = getelementptr inbounds nuw i8, ptr %22, i64 40
  %26 = load ptr, ptr %25, align 8, !tbaa !37
  store ptr %26, ptr %19, align 8, !tbaa !37
  %27 = load ptr, ptr %15, align 8, !tbaa !37
  %28 = getelementptr inbounds nuw i8, ptr %27, i64 48
  %29 = load ptr, ptr %28, align 8, !tbaa !37
  %30 = getelementptr inbounds nuw i8, ptr %29, i64 40
  store ptr %27, ptr %30, align 8, !tbaa !37
  %31 = load ptr, ptr %19, align 8, !tbaa !37
  %32 = getelementptr inbounds nuw i8, ptr %31, i64 40
  store ptr %1, ptr %32, align 8, !tbaa !37
  br label %hpdata_empty_list_remove.exit

33:                                               ; preds = %12
  store ptr null, ptr %6, align 8, !tbaa !36
  br label %hpdata_empty_list_remove.exit

34:                                               ; preds = %2
  %35 = getelementptr i8, ptr %1, i64 96
  %.val10 = load i64, ptr %35, align 8, !tbaa !34
  %36 = shl i64 %.val10, 12
  %37 = tail call i64 @je_sz_psz_quantize_floor(i64 noundef %36) #9
  %38 = icmp ugt i64 %37, 8070450532247928832
  br i1 %38, label %sz_psz2ind.exit, label %39, !prof !35

39:                                               ; preds = %34
  %40 = icmp ne i64 %37, 0
  tail call void @llvm.assume(i1 %40)
  %41 = add nsw i64 %37, -1
  %42 = tail call range(i64 0, 65) i64 @llvm.ctlz.i64(i64 %41, i1 false)
  %43 = trunc nuw nsw i64 %42 to i32
  %44 = tail call i32 @llvm.usub.sat.i32(i32 50, i32 %43)
  %45 = icmp samesign ult i64 %37, 16385
  %46 = add nuw nsw i32 %44, 11
  %47 = zext nneg i32 %46 to i64
  %48 = select i1 %45, i64 12, i64 %47
  %49 = lshr i64 %41, %48
  %50 = trunc i64 %49 to i32
  %51 = and i32 %50, 3
  %52 = shl nuw nsw i32 %44, 2
  %53 = or disjoint i32 %51, %52
  %54 = zext nneg i32 %53 to i64
  br label %sz_psz2ind.exit

sz_psz2ind.exit:                                  ; preds = %34, %39
  %.0.i = phi i64 [ %54, %39 ], [ 199, %34 ]
  %55 = getelementptr inbounds nuw [64 x %struct.hpdata_age_heap_t], ptr %0, i64 0, i64 %.0.i
  tail call void @je_hpdata_age_heap_remove(ptr noundef %55, ptr noundef nonnull %1) #9
  %56 = tail call zeroext i1 @je_hpdata_age_heap_empty(ptr noundef %55) #9
  br i1 %56, label %57, label %hpdata_empty_list_remove.exit

57:                                               ; preds = %sz_psz2ind.exit
  %58 = getelementptr inbounds nuw i8, ptr %0, i64 1024
  %59 = lshr i64 %.0.i, 6
  %60 = and i64 %.0.i, 63
  %61 = shl nuw i64 1, %60
  %62 = xor i64 %61, -1
  %63 = getelementptr inbounds nuw i64, ptr %58, i64 %59
  %64 = load i64, ptr %63, align 8, !tbaa !38
  %65 = and i64 %64, %62
  store i64 %65, ptr %63, align 8, !tbaa !38
  br label %hpdata_empty_list_remove.exit

hpdata_empty_list_remove.exit:                    ; preds = %2, %57, %sz_psz2ind.exit, %33, %14
  ret void
}